target datalayout = "e-m:e-p270:32:32-p271:32:32-p272:64:64-i64:64-i128:128-f80:128-n8:16:32:64-S128"
target triple = "x86_64-pc-linux-gnu"

%class.File = type { ptr, i64, i8, i32, i8, i8, i32, i8, i8, i8, i8, i8, i64, i8, [2048 x i32], i32, ptr }

@_ZTV4File = unnamed_addr constant { [10 x ptr] } { [10 x ptr] [ptr null, ptr @_ZTI4File, ptr @_ZN4FileD1Ev, ptr @_ZN4FileD0Ev, ptr @_ZN4File4OpenEPKwj, ptr @_ZN4File5CloseEv, ptr @_ZN4File4ReadEPvm, ptr @_ZN4File4SeekEli, ptr @_ZN4File4TellEv, ptr @_ZN4File8IsOpenedEv] }, align 8

; Function Attrs: mustprogress nounwind uwtable
define void @_ZN4FileC2Ev(ptr noundef nonnull align 8 dereferenceable(8256) %0) unnamed_addr #0 align 2 {
  %2 = alloca ptr, align 8
  store ptr %0, ptr %2, align 8
  %3 = load ptr, ptr %2, align 8
  store ptr getelementptr inbounds inrange(-16, 64) ({ [10 x ptr] }, ptr @_ZTV4File, i32 0, i32 0, i32 2), ptr %3, align 8
  %4 = getelementptr inbounds %class.File, ptr %3, i32 0, i32 1
  store i64 -1, ptr %4, align 8
  %5 = getelementptr inbounds %class.File, ptr %3, i32 0, i32 14
  %6 = getelementptr inbounds [2048 x i32], ptr %5, i64 0, i64 0
  store i32 0, ptr %6, align 4
  %7 = getelementptr inbounds %class.File, ptr %3, i32 0, i32 7
  store i8 0, ptr %7, align 8
  %8 = getelementptr inbounds %class.File, ptr %3, i32 0, i32 2
  store i8 0, ptr %8, align 8
  %9 = getelementptr inbounds %class.File, ptr %3, i32 0, i32 3
  store i32 0, ptr %9, align 4
  %10 = getelementptr inbounds %class.File, ptr %3, i32 0, i32 4
  store i8 0, ptr %10, align 8
  %11 = getelementptr inbounds %class.File, ptr %3, i32 0, i32 5
  store i8 0, ptr %11, align 1
  %12 = getelementptr inbounds %class.File, ptr %3, i32 0, i32 15
  store i32 0, ptr %12, align 4
  %13 = getelementptr inbounds %class.File, ptr %3, i32 0, i32 13
  store i8 0, ptr %13, align 8
  %14 = getelementptr inbounds %class.File, ptr %3, i32 0, i32 8
  store i8 1, ptr %14, align 1
  %15 = getelementptr inbounds %class.File, ptr %3, i32 0, i32 9
  store i8 1, ptr %15, align 2
  %16 = getelementptr inbounds %class.File, ptr %3, i32 0, i32 10
  store i8 0, ptr %16, align 1
  %17 = getelementptr inbounds %class.File, ptr %3, i32 0, i32 6
  store i32 0, ptr %17, align 4
  %18 = getelementptr inbounds %class.File, ptr %3, i32 0, i32 11
  store i8 0, ptr %18, align 4
  %19 = getelementptr inbounds %class.File, ptr %3, i32 0, i32 12
  store i64 0, ptr %19, align 8
  ret void
}